; Function Attrs: mustprogress uwtable
define hidden noundef i32 @_ZN7datalog21sieve_relation_plugin17get_relation_kindERNS_14sieve_relationEPKb(ptr noundef nonnull align 8 dereferenceable(104) %0, ptr noundef nonnull align 8 dereferenceable(72) %1, ptr noundef readonly captures(none) %2) local_unnamed_addr #3 align 2 {
  %4 = getelementptr inbounds nuw i8, ptr %1, i64 16
  %5 = getelementptr inbounds nuw i8, ptr %1, i64 64
  %6 = load ptr, ptr %5, align 8, !tbaa !26
  %7 = getelementptr inbounds nuw i8, ptr %6, i64 24
  %8 = load i32, ptr %7, align 8, !tbaa !21
  %9 = tail call noundef i32 @_ZN7datalog21sieve_relation_plugin17get_relation_kindERKNS_18relation_signatureEPKbi(ptr noundef nonnull align 8 dereferenceable(104) %0, ptr noundef nonnull align 8 dereferenceable(8) %4, ptr noundef %2, i32 noundef %8)
  ret i32 %9
}